; ModuleID = '20/851.cpp'
source_filename = "20/851.cpp"
target datalayout = "e-m:e-p270:32:32-p271:32:32-p272:64:64-i64:64-f80:128-n8:16:32:64-S128"
target triple = "x86_64-pc-linux-gnu"

%"class.std::ios_base::Init" = type { i8 }
%"class.std::basic_istream" = type { i32 (...)**, i64, %"class.std::basic_ios" }
%"class.std::basic_ios" = type { %"class.std::ios_base", %"class.std::basic_ostream"*, i8, i8, %"class.std::basic_streambuf"*, %"class.std::ctype"*, %"class.std::num_put"*, %"class.std::num_get"* }
%"class.std::ios_base" = type { i32 (...)**, i64, i64, i32, i32, i32, %"struct.std::ios_base::_Callback_list"*, %"struct.std::ios_base::_Words", [8 x %"struct.std::ios_base::_Words"], i32, %"struct.std::ios_base::_Words"*, %"class.std::locale" }
%"struct.std::ios_base::_Callback_list" = type { %"struct.std::ios_base::_Callback_list"*, void (i32, %"class.std::ios_base"*, i32)*, i32, i32 }
%"struct.std::ios_base::_Words" = type { i8*, i64 }
%"class.std::locale" = type { %"class.std::locale::_Impl"* }
%"class.std::locale::_Impl" = type { i32, %"class.std::locale::facet"**, i64, %"class.std::locale::facet"**, i8** }
%"class.std::locale::facet" = type <{ i32 (...)**, i32, [4 x i8] }>
%"class.std::basic_ostream" = type { i32 (...)**, %"class.std::basic_ios" }
%"class.std::basic_streambuf" = type { i32 (...)**, i8*, i8*, i8*, i8*, i8*, i8*, %"class.std::locale" }
%"class.std::ctype" = type <{ %"class.std::locale::facet.base", [4 x i8], %struct.__locale_struct*, i8, [7 x i8], i32*, i32*, i16*, i8, [256 x i8], [256 x i8], i8, [6 x i8] }>
%"class.std::locale::facet.base" = type <{ i32 (...)**, i32 }>
%struct.__locale_struct = type { [13 x %struct.__locale_data*], i16*, i32*, i32*, [13 x i8*] }
%struct.__locale_data = type opaque
%"class.std::num_put" = type { %"class.std::locale::facet.base", [4 x i8] }
%"class.std::num_get" = type { %"class.std::locale::facet.base", [4 x i8] }

@_ZStL8__ioinit = internal global %"class.std::ios_base::Init" zeroinitializer, align 1
@__dso_handle = external hidden global i8
@_ZSt3cin = external dso_local global %"class.std::basic_istream", align 8
@_ZSt4cout = external dso_local global %"class.std::basic_ostream", align 8
@llvm.global_ctors = appending global [1 x { i32, void ()*, i8* }] [{ i32, void ()*, i8* } { i32 65535, void ()* @_GLOBAL__sub_I_851.cpp, i8* null }]

; Function Attrs: noinline uwtable
define internal void @__cxx_global_var_init() #0 section ".text.startup" {
  call void @_ZNSt8ios_base4InitC1Ev(%"class.std::ios_base::Init"* @_ZStL8__ioinit)
  %1 = call i32 @__cxa_atexit(void (i8*)* bitcast (void (%"class.std::ios_base::Init"*)* @_ZNSt8ios_base4InitD1Ev to void (i8*)*), i8* getelementptr inbounds (%"class.std::ios_base::Init", %"class.std::ios_base::Init"* @_ZStL8__ioinit, i32 0, i32 0), i8* @__dso_handle) #3
  ret void
}

declare dso_local void @_ZNSt8ios_base4InitC1Ev(%"class.std::ios_base::Init"*) unnamed_addr #1

; Function Attrs: nounwind
declare dso_local void @_ZNSt8ios_base4InitD1Ev(%"class.std::ios_base::Init"*) unnamed_addr #2

; Function Attrs: nounwind
declare dso_local i32 @__cxa_atexit(void (i8*)*, i8*, i8*) #3

; Function Attrs: noinline norecurse uwtable
define dso_local i32 @main() #4 {
  %1 = alloca i32, align 4
  %2 = alloca i32, align 4
  %3 = alloca i8, align 1
  %4 = alloca [14 x i8], align 1
  %5 = alloca [4 x i8], align 1
  %6 = alloca i8*, align 8
  %7 = alloca i8*, align 8
  store i32 0, i32* %1, align 4
  store i32 0, i32* %2, align 4
  store i8 0, i8* %3, align 1
  %8 = getelementptr inbounds [14 x i8], [14 x i8]* %4, i64 0, i64 0
  store i8* %8, i8** %6, align 8
  %9 = getelementptr inbounds [14 x i8], [14 x i8]* %4, i64 0, i64 0
  store i8* %9, i8** %7, align 8
  br label %10

10:                                               ; preds = %101, %0
  %11 = getelementptr inbounds [14 x i8], [14 x i8]* %4, i64 0, i64 0
  %12 = call dereferenceable(280) %"class.std::basic_istream"* @_ZStrsIcSt11char_traitsIcEERSt13basic_istreamIT_T0_ES6_PS3_(%"class.std::basic_istream"* dereferenceable(280) @_ZSt3cin, i8* %11)
  %13 = getelementptr inbounds [4 x i8], [4 x i8]* %5, i64 0, i64 0
  %14 = call dereferenceable(280) %"class.std::basic_istream"* @_ZStrsIcSt11char_traitsIcEERSt13basic_istreamIT_T0_ES6_PS3_(%"class.std::basic_istream"* dereferenceable(280) %12, i8* %13)
  %15 = bitcast %"class.std::basic_istream"* %14 to i8**
  %16 = load i8*, i8** %15, align 8
  %17 = getelementptr i8, i8* %16, i64 -24
  %18 = bitcast i8* %17 to i64*
  %19 = load i64, i64* %18, align 8
  %20 = bitcast %"class.std::basic_istream"* %14 to i8*
  %21 = getelementptr inbounds i8, i8* %20, i64 %19
  %22 = bitcast i8* %21 to %"class.std::basic_ios"*
  %23 = call zeroext i1 @_ZNKSt9basic_iosIcSt11char_traitsIcEEcvbEv(%"class.std::basic_ios"* %22)
  br i1 %23, label %24, label %105

24:                                               ; preds = %10
  store i32 0, i32* %2, align 4
  %25 = load i8*, i8** %6, align 8
  %26 = load i8, i8* %25, align 1
  store i8 %26, i8* %3, align 1
  br label %27

27:                                               ; preds = %55, %24
  %28 = load i8*, i8** %6, align 8
  %29 = load i32, i32* %2, align 4
  %30 = sext i32 %29 to i64
  %31 = getelementptr inbounds i8, i8* %28, i64 %30
  %32 = load i8, i8* %31, align 1
  %33 = sext i8 %32 to i32
  %34 = icmp ne i32 %33, 0
  br i1 %34, label %35, label %58

35:                                               ; preds = %27
  %36 = load i8*, i8** %6, align 8
  %37 = load i32, i32* %2, align 4
  %38 = sext i32 %37 to i64
  %39 = getelementptr inbounds i8, i8* %36, i64 %38
  %40 = load i8, i8* %39, align 1
  %41 = sext i8 %40 to i32
  %42 = load i8, i8* %3, align 1
  %43 = sext i8 %42 to i32
  %44 = icmp sgt i32 %41, %43
  br i1 %44, label %45, label %55

45:                                               ; preds = %35
  %46 = load i8*, i8** %6, align 8
  %47 = load i32, i32* %2, align 4
  %48 = sext i32 %47 to i64
  %49 = getelementptr inbounds i8, i8* %46, i64 %48
  %50 = load i8, i8* %49, align 1
  store i8 %50, i8* %3, align 1
  %51 = load i8*, i8** %6, align 8
  %52 = load i32, i32* %2, align 4
  %53 = sext i32 %52 to i64
  %54 = getelementptr inbounds i8, i8* %51, i64 %53
  store i8* %54, i8** %7, align 8
  br label %55

55:                                               ; preds = %45, %35
  %56 = load i32, i32* %2, align 4
  %57 = add nsw i32 %56, 1
  store i32 %57, i32* %2, align 4
  br label %27

58:                                               ; preds = %27
  %59 = load i8*, i8** %7, align 8
  %60 = load i8*, i8** %6, align 8
  %61 = ptrtoint i8* %59 to i64
  %62 = ptrtoint i8* %60 to i64
  %63 = sub i64 %61, %62
  %64 = add nsw i64 %63, 1
  %65 = sub nsw i64 11, %64
  %66 = trunc i64 %65 to i32
  store i32 %66, i32* %2, align 4
  br label %67

67:                                               ; preds = %81, %58
  %68 = load i32, i32* %2, align 4
  %69 = icmp sge i32 %68, 1
  br i1 %69, label %70, label %84

70:                                               ; preds = %67
  %71 = load i8*, i8** %7, align 8
  %72 = load i32, i32* %2, align 4
  %73 = sext i32 %72 to i64
  %74 = getelementptr inbounds i8, i8* %71, i64 %73
  %75 = load i8, i8* %74, align 1
  %76 = load i8*, i8** %7, align 8
  %77 = load i32, i32* %2, align 4
  %78 = sext i32 %77 to i64
  %79 = getelementptr inbounds i8, i8* %76, i64 %78
  %80 = getelementptr inbounds i8, i8* %79, i64 3
  store i8 %75, i8* %80, align 1
  br label %81

81:                                               ; preds = %70
  %82 = load i32, i32* %2, align 4
  %83 = add nsw i32 %82, -1
  store i32 %83, i32* %2, align 4
  br label %67

84:                                               ; preds = %67
  store i32 1, i32* %2, align 4
  br label %85

85:                                               ; preds = %98, %84
  %86 = load i32, i32* %2, align 4
  %87 = icmp sle i32 %86, 3
  br i1 %87, label %88, label %101

88:                                               ; preds = %85
  %89 = load i32, i32* %2, align 4
  %90 = sub nsw i32 %89, 1
  %91 = sext i32 %90 to i64
  %92 = getelementptr inbounds [4 x i8], [4 x i8]* %5, i64 0, i64 %91
  %93 = load i8, i8* %92, align 1
  %94 = load i8*, i8** %7, align 8
  %95 = load i32, i32* %2, align 4
  %96 = sext i32 %95 to i64
  %97 = getelementptr inbounds i8, i8* %94, i64 %96
  store i8 %93, i8* %97, align 1
  br label %98

98:                                               ; preds = %88
  %99 = load i32, i32* %2, align 4
  %100 = add nsw i32 %99, 1
  store i32 %100, i32* %2, align 4
  br label %85

101:                                              ; preds = %85
  %102 = getelementptr inbounds [14 x i8], [14 x i8]* %4, i64 0, i64 0
  %103 = call dereferenceable(272) %"class.std::basic_ostream"* @_ZStlsISt11char_traitsIcEERSt13basic_ostreamIcT_ES5_PKc(%"class.std::basic_ostream"* dereferenceable(272) @_ZSt4cout, i8* %102)
  %104 = call dereferenceable(272) %"class.std::basic_ostream"* @_ZNSolsEPFRSoS_E(%"class.std::basic_ostream"* %103, %"class.std::basic_ostream"* (%"class.std::basic_ostream"*)* @_ZSt4endlIcSt11char_traitsIcEERSt13basic_ostreamIT_T0_ES6_)
  br label %10

105:                                              ; preds = %10
  ret i32 0
}

declare dso_local dereferenceable(280) %"class.std::basic_istream"* @_ZStrsIcSt11char_traitsIcEERSt13basic_istreamIT_T0_ES6_PS3_(%"class.std::basic_istream"* dereferenceable(280), i8*) #1

declare dso_local zeroext i1 @_ZNKSt9basic_iosIcSt11char_traitsIcEEcvbEv(%"class.std::basic_ios"*) #1

declare dso_local dereferenceable(272) %"class.std::basic_ostream"* @_ZStlsISt11char_traitsIcEERSt13basic_ostreamIcT_ES5_PKc(%"class.std::basic_ostream"* dereferenceable(272), i8*) #1

declare dso_local dereferenceable(272) %"class.std::basic_ostream"* @_ZNSolsEPFRSoS_E(%"class.std::basic_ostream"*, %"class.std::basic_ostream"* (%"class.std::basic_ostream"*)*) #1

declare dso_local dereferenceable(272) %"class.std::basic_ostream"* @_ZSt4endlIcSt11char_traitsIcEERSt13basic_ostreamIT_T0_ES6_(%"class.std::basic_ostream"* dereferenceable(272)) #1

; Function Attrs: noinline uwtable
define internal void @_GLOBAL__sub_I_851.cpp() #0 section ".text.startup" {
  call void @__cxx_global_var_init()
  ret void
}


!llvm.module.flags = !{!0}
!llvm.ident = !{!1}

!0 = !{i32 1, !"wchar_size", i32 4}
!1 = !{!"clang version 10.0.0-4ubuntu1 "}
